c__builtin__
set
p0
((lp1
ccopy_reg
_reconstructor
p2
(ctest_finders.test_info
TestInfo
p3
c__builtin__
object
p4
Ntp5
Rp6
(dp7
S'install_locations'
p8
g0
((lp9
S'device'
p10
aS'host'
p11
atp12
Rp13
sS'test_runner'
p14
S'AtestTradefedTestRunner'
p15
sS'module_class'
p16
(lp17
VNATIVE_TESTS
p18
asS'from_test_mapping'
p19
I00
sS'test_finder'
p20
S'MODULE'
p21
sS'build_targets'
p22
g0
((lp23
VMODULES-IN-platform_testing-tests-example-native
p24
atp25
Rp26
sS'host'
p27
I00
sS'test_name'
p28
S'hello_world_test'
p29
sS'suite'
p30
NsS'data'
p31
(dp32
S'rel_config'
p33
Vplatform_testing/tests/example/native/AndroidTest.xml
p34
sS'filter'
p35
c__builtin__
frozenset
p36
((lp37
tp38
Rp39
ssbatp40
Rp41
.
